; ModuleID = 'bench/zxing/original/DecodeHints.cpp.ll'
source_filename = "bench/zxing/original/DecodeHints.cpp.ll"
target datalayout = "e-m:e-p270:32:32-p271:32:32-p272:64:64-i64:64-i128:128-f80:128-n8:16:32:64-S128"
target triple = "x86_64-pc-linux-gnu"

%"class.ZXing::Result" = type <{ %"class.ZXing::Content", %"class.ZXing::Error", %"class.ZXing::Quadrilateral", %"class.ZXing::ReaderOptions", [4 x i8], %"struct.ZXing::StructuredAppendInfo", i32, [4 x i8], [4 x i8], i32, i8, i8, i8, [5 x i8] }>
%"class.ZXing::Content" = type <{ %"class.ZXing::ByteArray", %"class.std::vector.0", %"struct.ZXing::SymbologyIdentifier", i8, i8, [2 x i8] }>
%"class.ZXing::ByteArray" = type { %"class.std::vector" }
%"class.std::vector" = type { %"struct.std::_Vector_base" }
%"struct.std::_Vector_base" = type { %"struct.std::_Vector_base<unsigned char, std::allocator<unsigned char>>::_Vector_impl" }
%"struct.std::_Vector_base<unsigned char, std::allocator<unsigned char>>::_Vector_impl" = type { %"struct.std::_Vector_base<unsigned char, std::allocator<unsigned char>>::_Vector_impl_data" }
%"struct.std::_Vector_base<unsigned char, std::allocator<unsigned char>>::_Vector_impl_data" = type { ptr, ptr, ptr }
%"class.std::vector.0" = type { %"struct.std::_Vector_base.1" }
%"struct.std::_Vector_base.1" = type { %"struct.std::_Vector_base<ZXing::Content::Encoding, std::allocator<ZXing::Content::Encoding>>::_Vector_impl" }
%"struct.std::_Vector_base<ZXing::Content::Encoding, std::allocator<ZXing::Content::Encoding>>::_Vector_impl" = type { %"struct.std::_Vector_base<ZXing::Content::Encoding, std::allocator<ZXing::Content::Encoding>>::_Vector_impl_data" }
%"struct.std::_Vector_base<ZXing::Content::Encoding, std::allocator<ZXing::Content::Encoding>>::_Vector_impl_data" = type { ptr, ptr, ptr }
%"struct.ZXing::SymbologyIdentifier" = type { i8, i8, i8, i8 }
%"class.ZXing::Error" = type <{ %"class.std::__cxx11::basic_string", ptr, i16, i8, [5 x i8] }>
%"class.std::__cxx11::basic_string" = type { %"struct.std::__cxx11::basic_string<char>::_Alloc_hider", i64, %union.anon }
%"struct.std::__cxx11::basic_string<char>::_Alloc_hider" = type { ptr }
%union.anon = type { i64, [8 x i8] }
%"class.ZXing::Quadrilateral" = type { %"struct.std::array" }
%"struct.std::array" = type { [4 x %"struct.ZXing::PointT"] }
%"struct.ZXing::PointT" = type { i32, i32 }
%"class.ZXing::ReaderOptions" = type { i32, i8, i8, i16, %"class.ZXing::Flags" }
%"class.ZXing::Flags" = type { i32 }
%"struct.ZXing::StructuredAppendInfo" = type { i32, i32, %"class.std::__cxx11::basic_string" }
%"class.std::vector.8" = type { %"struct.std::_Vector_base.9" }
%"struct.std::_Vector_base.9" = type { %"struct.std::_Vector_base<ZXing::Result, std::allocator<ZXing::Result>>::_Vector_impl" }
%"struct.std::_Vector_base<ZXing::Result, std::allocator<ZXing::Result>>::_Vector_impl" = type { %"struct.std::_Vector_base<ZXing::Result, std::allocator<ZXing::Result>>::_Vector_impl_data" }
%"struct.std::_Vector_base<ZXing::Result, std::allocator<ZXing::Result>>::_Vector_impl_data" = type { ptr, ptr, ptr }

; Function Attrs: mustprogress uwtable
define void @_ZN5ZXing11ReadBarcodeERKNS_9ImageViewERKNS_11DecodeHintsE(ptr dead_on_unwind noalias writable sret(%"class.ZXing::Result") align 8 %0, ptr noundef nonnull align 8 dereferenceable(28) %1, ptr noundef nonnull align 1 dereferenceable(12) %2) local_unnamed_addr #0 {
  tail call void @_ZN5ZXing11ReadBarcodeERKNS_9ImageViewERKNS_13ReaderOptionsE(ptr dead_on_unwind writable sret(%"class.ZXing::Result") align 8 %0, ptr noundef nonnull align 8 dereferenceable(28) %1, ptr noundef nonnull align 4 dereferenceable(12) %2)
  ret void
}

declare void @_ZN5ZXing11ReadBarcodeERKNS_9ImageViewERKNS_13ReaderOptionsE(ptr dead_on_unwind writable sret(%"class.ZXing::Result") align 8, ptr noundef nonnull align 8 dereferenceable(28), ptr noundef nonnull align 4 dereferenceable(12)) local_unnamed_addr #1

; Function Attrs: mustprogress uwtable
define void @_ZN5ZXing12ReadBarcodesERKNS_9ImageViewERKNS_11DecodeHintsE(ptr dead_on_unwind noalias writable sret(%"class.std::vector.8") align 8 %0, ptr noundef nonnull align 8 dereferenceable(28) %1, ptr noundef nonnull align 1 dereferenceable(12) %2) local_unnamed_addr #0 {
  tail call void @_ZN5ZXing12ReadBarcodesERKNS_9ImageViewERKNS_13ReaderOptionsE(ptr dead_on_unwind writable sret(%"class.std::vector.8") align 8 %0, ptr noundef nonnull align 8 dereferenceable(28) %1, ptr noundef nonnull align 4 dereferenceable(12) %2)
  ret void
}

declare void @_ZN5ZXing12ReadBarcodesERKNS_9ImageViewERKNS_13ReaderOptionsE(ptr dead_on_unwind writable sret(%"class.std::vector.8") align 8, ptr noundef nonnull align 8 dereferenceable(28), ptr noundef nonnull align 4 dereferenceable(12)) local_unnamed_addr #1


!llvm.module.flags = !{!0, !1, !2, !3}

!0 = !{i32 1, !"wchar_size", i32 4}
!1 = !{i32 8, !"PIC Level", i32 2}
!2 = !{i32 7, !"uwtable", i32 2}
!3 = !{i32 7, !"frame-pointer", i32 2}
